ARM GAS  C:\Users\Vanessa Aloia.Vanessa\AppData\Local\Temp\ccUMi48a.s 			page 1


   1              		.syntax unified
   2              		.cpu cortex-m3
   3              		.fpu softvfp
   4              		.eabi_attribute 20, 1
   5              		.eabi_attribute 21, 1
   6              		.eabi_attribute 23, 3
   7              		.eabi_attribute 24, 1
   8              		.eabi_attribute 25, 1
   9              		.eabi_attribute 26, 1
  10              		.eabi_attribute 30, 1
  11              		.eabi_attribute 34, 1
  12              		.eabi_attribute 18, 4
  13              		.thumb
  14              		.syntax unified
  15              		.file	"main.c"
  16              		.text
  17              	.Ltext0:
  18              		.cfi_sections	.debug_frame
  19              		.section	.text.main,"ax",%progbits
  20              		.align	2
  21              		.global	main
  22              		.thumb
  23              		.thumb_func
  24              		.type	main, %function
  25              	main:
  26              	.LFB64:
  27              		.file 1 "main.c"
   1:main.c        **** 
   2:main.c        **** // Include required header files
   3:main.c        **** #include "I2C_Interface.h"
   4:main.c        **** #include "project.h"
   5:main.c        **** #include "stdio.h"
   6:main.c        **** 
   7:main.c        **** /*  7-bit I2C address of the accelerometer. */
   8:main.c        **** #define LIS3DH_DEVICE_ADDRESS 0x18
   9:main.c        **** 
  10:main.c        **** /* 8-bit control register 1 address of the accelerometer */
  11:main.c        **** #define CTRL_REG_1 0x20
  12:main.c        **** 
  13:main.c        **** /* 8-bit control register 4 address of the accelerometer */
  14:main.c        **** #define CTRL_REG_4 0x23
  15:main.c        **** 
  16:main.c        **** /*8-bit registers to read the X output */
  17:main.c        **** #define OUT_X_L 0x28
  18:main.c        **** 
  19:main.c        **** #define OUT_X_H 0x29
  20:main.c        **** 
  21:main.c        **** #define OUT_Y_L 0x2A
  22:main.c        **** 
  23:main.c        **** #define OUT_Z_L 0x2B
  24:main.c        **** 
  25:main.c        **** #define OUT_Z_H 0x2D
  26:main.c        **** 
  27:main.c        **** 
  28:main.c        **** /* set the normal mode (NM) and 100 Hz rate operating mode */
  29:main.c        **** 
  30:main.c        **** #define CTRL_REG_1_NM 0x57
ARM GAS  C:\Users\Vanessa Aloia.Vanessa\AppData\Local\Temp\ccUMi48a.s 			page 2


  31:main.c        **** #define CTRL_REG_4_NM 0x0
  32:main.c        **** 
  33:main.c        **** 
  34:main.c        **** 
  35:main.c        **** int main(void)
  36:main.c        **** {
  28              		.loc 1 36 0
  29              		.cfi_startproc
  30              		@ args = 0, pretend = 0, frame = 56
  31              		@ frame_needed = 0, uses_anonymous_args = 0
  32 0000 30B5     		push	{r4, r5, lr}
  33              		.cfi_def_cfa_offset 12
  34              		.cfi_offset 4, -12
  35              		.cfi_offset 5, -8
  36              		.cfi_offset 14, -4
  37 0002 8FB0     		sub	sp, sp, #60
  38              		.cfi_def_cfa_offset 72
  37:main.c        ****     CyGlobalIntEnable; /* Enable global interrupts. */
  39              		.loc 1 37 0
  40              		.syntax unified
  41              	@ 37 "main.c" 1
  42 0004 62B6     		CPSIE   i
  43              	@ 0 "" 2
  38:main.c        **** 
  39:main.c        ****     /* Place your initialization/startup code here (e.g. MyInst_Start()) */
  40:main.c        ****     I2C_Peripheral_Start();
  44              		.loc 1 40 0
  45              		.thumb
  46              		.syntax unified
  47 0006 FFF7FEFF 		bl	I2C_Peripheral_Start
  48              	.LVL0:
  41:main.c        ****     UART_Debug_Start();
  49              		.loc 1 41 0
  50 000a FFF7FEFF 		bl	UART_Debug_Start
  51              	.LVL1:
  42:main.c        ****     
  43:main.c        ****     CyDelay(5); //"The boot procedure is complete about 5 milliseconds after device power-up."
  52              		.loc 1 43 0
  53 000e 0520     		movs	r0, #5
  54 0010 FFF7FEFF 		bl	CyDelay
  55              	.LVL2:
  56              	.LBB2:
  44:main.c        ****     
  45:main.c        ****     // String to print out messages on the UART
  46:main.c        ****     char message[50];
  47:main.c        **** 
  48:main.c        ****     // Check which devices are present on the I2C bus
  49:main.c        ****     for (int i = 0 ; i < 128; i++)
  57              		.loc 1 49 0
  58 0014 0024     		movs	r4, #0
  59 0016 0CE0     		b	.L2
  60              	.LVL3:
  61              	.L4:
  50:main.c        ****     {
  51:main.c        ****         if (I2C_Peripheral_IsDeviceConnected(i))
  62              		.loc 1 51 0
  63 0018 E0B2     		uxtb	r0, r4
ARM GAS  C:\Users\Vanessa Aloia.Vanessa\AppData\Local\Temp\ccUMi48a.s 			page 3


  64 001a FFF7FEFF 		bl	I2C_Peripheral_IsDeviceConnected
  65              	.LVL4:
  66 001e 38B1     		cbz	r0, .L3
  52:main.c        ****         {
  53:main.c        ****             // print out the address is hex format
  54:main.c        ****             sprintf(message, "Device 0x%02X is connected\r\n", i);
  67              		.loc 1 54 0
  68 0020 2246     		mov	r2, r4
  69 0022 4849     		ldr	r1, .L14
  70 0024 01A8     		add	r0, sp, #4
  71 0026 FFF7FEFF 		bl	sprintf
  72              	.LVL5:
  55:main.c        ****             UART_Debug_PutString(message); 
  73              		.loc 1 55 0
  74 002a 01A8     		add	r0, sp, #4
  75 002c FFF7FEFF 		bl	UART_Debug_PutString
  76              	.LVL6:
  77              	.L3:
  49:main.c        ****     {
  78              		.loc 1 49 0 discriminator 2
  79 0030 0134     		adds	r4, r4, #1
  80              	.LVL7:
  81              	.L2:
  49:main.c        ****     {
  82              		.loc 1 49 0 is_stmt 0 discriminator 1
  83 0032 7F2C     		cmp	r4, #127
  84 0034 F0DD     		ble	.L4
  85              	.LBE2:
  56:main.c        ****         }
  57:main.c        ****         
  58:main.c        ****     }
  59:main.c        ****     
  60:main.c        ****     
  61:main.c        ****     /* SET THE REGISTERS TO READ THE ACCELEROMETER'S OUTPUT AT 100 HZ WITH 10-bit RESOLUTION
  62:main.c        ****      (NORMALE MODE)
  63:main.c        ****     */
  64:main.c        ****     
  65:main.c        ****     uint8_t ctrl_reg;
  66:main.c        ****     uint8_t error;
  67:main.c        ****     
  68:main.c        ****     error = I2C_Peripheral_ReadRegister(LIS3DH_DEVICE_ADDRESS,CTRL_REG_1,&ctrl_reg);
  86              		.loc 1 68 0 is_stmt 1
  87 0036 0DF10302 		add	r2, sp, #3
  88 003a 2021     		movs	r1, #32
  89 003c 1820     		movs	r0, #24
  90 003e FFF7FEFF 		bl	I2C_Peripheral_ReadRegister
  91              	.LVL8:
  69:main.c        ****     
  70:main.c        ****     if (error == ERROR) {
  92              		.loc 1 70 0
  93 0042 0128     		cmp	r0, #1
  94 0044 0DD1     		bne	.L5
  71:main.c        ****         sprintf(message, "Error occurred while reading CTRL_REG_1\r\n");
  95              		.loc 1 71 0
  96 0046 01AC     		add	r4, sp, #4
  97              	.LVL9:
  98 0048 3F4D     		ldr	r5, .L14+4
ARM GAS  C:\Users\Vanessa Aloia.Vanessa\AppData\Local\Temp\ccUMi48a.s 			page 4


  99 004a 0FCD     		ldmia	r5!, {r0, r1, r2, r3}
 100              	.LVL10:
 101 004c 0FC4     		stmia	r4!, {r0, r1, r2, r3}
 102 004e 0FCD     		ldmia	r5!, {r0, r1, r2, r3}
 103 0050 0FC4     		stmia	r4!, {r0, r1, r2, r3}
 104 0052 95E80700 		ldmia	r5, {r0, r1, r2}
 105 0056 03C4     		stmia	r4!, {r0, r1}
 106 0058 2280     		strh	r2, [r4]	@ movhi
  72:main.c        ****         UART_Debug_PutString(message);
 107              		.loc 1 72 0
 108 005a 01A8     		add	r0, sp, #4
 109 005c FFF7FEFF 		bl	UART_Debug_PutString
 110              	.LVL11:
 111 0060 08E0     		b	.L6
 112              	.LVL12:
 113              	.L5:
  73:main.c        ****     }
  74:main.c        ****     
  75:main.c        ****     else {
  76:main.c        ****          sprintf(message, "CTRL_REG_1 default value: 0x%02X \r\n", ctrl_reg);
 114              		.loc 1 76 0
 115 0062 9DF80320 		ldrb	r2, [sp, #3]	@ zero_extendqisi2
 116 0066 3949     		ldr	r1, .L14+8
 117 0068 01A8     		add	r0, sp, #4
 118              	.LVL13:
 119 006a FFF7FEFF 		bl	sprintf
 120              	.LVL14:
  77:main.c        ****          UART_Debug_PutString(message); 
 121              		.loc 1 77 0
 122 006e 01A8     		add	r0, sp, #4
 123 0070 FFF7FEFF 		bl	UART_Debug_PutString
 124              	.LVL15:
 125              	.L6:
  78:main.c        ****     }
  79:main.c        ****     
  80:main.c        ****     if (ctrl_reg != CTRL_REG_1_NM) {
 126              		.loc 1 80 0
 127 0074 9DF80330 		ldrb	r3, [sp, #3]	@ zero_extendqisi2
 128 0078 572B     		cmp	r3, #87
 129 007a 1FD0     		beq	.L7
  81:main.c        ****         ctrl_reg = CTRL_REG_1_NM;
 130              		.loc 1 81 0
 131 007c 5722     		movs	r2, #87
 132 007e 8DF80320 		strb	r2, [sp, #3]
  82:main.c        ****         
  83:main.c        ****         error = I2C_Peripheral_WriteRegister(LIS3DH_DEVICE_ADDRESS,CTRL_REG_1,ctrl_reg);
 133              		.loc 1 83 0
 134 0082 2021     		movs	r1, #32
 135 0084 1820     		movs	r0, #24
 136 0086 FFF7FEFF 		bl	I2C_Peripheral_WriteRegister
 137              	.LVL16:
  84:main.c        ****         
  85:main.c        ****         if (error == ERROR) {
 138              		.loc 1 85 0
 139 008a 0128     		cmp	r0, #1
 140 008c 0DD1     		bne	.L8
  86:main.c        ****             
ARM GAS  C:\Users\Vanessa Aloia.Vanessa\AppData\Local\Temp\ccUMi48a.s 			page 5


  87:main.c        ****             sprintf(message,"Error occured while writing in CTRL_REG_1\r\n");
 141              		.loc 1 87 0
 142 008e 01AC     		add	r4, sp, #4
 143 0090 2F4D     		ldr	r5, .L14+12
 144 0092 0FCD     		ldmia	r5!, {r0, r1, r2, r3}
 145              	.LVL17:
 146 0094 0FC4     		stmia	r4!, {r0, r1, r2, r3}
 147 0096 0FCD     		ldmia	r5!, {r0, r1, r2, r3}
 148 0098 0FC4     		stmia	r4!, {r0, r1, r2, r3}
 149 009a 95E80700 		ldmia	r5, {r0, r1, r2}
 150 009e 84E80700 		stmia	r4, {r0, r1, r2}
  88:main.c        ****             UART_Debug_PutString(message);
 151              		.loc 1 88 0
 152 00a2 01A8     		add	r0, sp, #4
 153 00a4 FFF7FEFF 		bl	UART_Debug_PutString
 154              	.LVL18:
 155 00a8 08E0     		b	.L7
 156              	.LVL19:
 157              	.L8:
  89:main.c        ****         }
  90:main.c        ****         else {
  91:main.c        ****             sprintf(message, " CTRL_REG_1 set up at : 0x%02x\r\n", ctrl_reg);
 158              		.loc 1 91 0
 159 00aa 9DF80320 		ldrb	r2, [sp, #3]	@ zero_extendqisi2
 160 00ae 2949     		ldr	r1, .L14+16
 161 00b0 01A8     		add	r0, sp, #4
 162              	.LVL20:
 163 00b2 FFF7FEFF 		bl	sprintf
 164              	.LVL21:
  92:main.c        ****             UART_Debug_PutString(message);
 165              		.loc 1 92 0
 166 00b6 01A8     		add	r0, sp, #4
 167 00b8 FFF7FEFF 		bl	UART_Debug_PutString
 168              	.LVL22:
 169              	.L7:
  93:main.c        ****         }
  94:main.c        ****     }
  95:main.c        ****     
  96:main.c        ****     error = I2C_Peripheral_ReadRegister(LIS3DH_DEVICE_ADDRESS,CTRL_REG_4,&ctrl_reg);
 170              		.loc 1 96 0
 171 00bc 0DF10302 		add	r2, sp, #3
 172 00c0 2321     		movs	r1, #35
 173 00c2 1820     		movs	r0, #24
 174 00c4 FFF7FEFF 		bl	I2C_Peripheral_ReadRegister
 175              	.LVL23:
  97:main.c        ****     
  98:main.c        ****     if (error == ERROR) {
 176              		.loc 1 98 0
 177 00c8 0128     		cmp	r0, #1
 178 00ca 0DD1     		bne	.L9
  99:main.c        ****         sprintf(message, "Error occurred while reading CTRL_REG_4\r\n");
 179              		.loc 1 99 0
 180 00cc 01AC     		add	r4, sp, #4
 181 00ce 224D     		ldr	r5, .L14+20
 182 00d0 0FCD     		ldmia	r5!, {r0, r1, r2, r3}
 183              	.LVL24:
 184 00d2 0FC4     		stmia	r4!, {r0, r1, r2, r3}
ARM GAS  C:\Users\Vanessa Aloia.Vanessa\AppData\Local\Temp\ccUMi48a.s 			page 6


 185 00d4 0FCD     		ldmia	r5!, {r0, r1, r2, r3}
 186 00d6 0FC4     		stmia	r4!, {r0, r1, r2, r3}
 187 00d8 95E80700 		ldmia	r5, {r0, r1, r2}
 188 00dc 03C4     		stmia	r4!, {r0, r1}
 189 00de 2280     		strh	r2, [r4]	@ movhi
 100:main.c        ****         UART_Debug_PutString(message);
 190              		.loc 1 100 0
 191 00e0 01A8     		add	r0, sp, #4
 192 00e2 FFF7FEFF 		bl	UART_Debug_PutString
 193              	.LVL25:
 194 00e6 08E0     		b	.L10
 195              	.LVL26:
 196              	.L9:
 101:main.c        ****     }
 102:main.c        ****     
 103:main.c        ****     else {
 104:main.c        ****          sprintf(message, "CTRL_REG_4 default value: 0x%02X \r\n", ctrl_reg);
 197              		.loc 1 104 0
 198 00e8 9DF80320 		ldrb	r2, [sp, #3]	@ zero_extendqisi2
 199 00ec 1B49     		ldr	r1, .L14+24
 200 00ee 01A8     		add	r0, sp, #4
 201              	.LVL27:
 202 00f0 FFF7FEFF 		bl	sprintf
 203              	.LVL28:
 105:main.c        ****          UART_Debug_PutString(message); 
 204              		.loc 1 105 0
 205 00f4 01A8     		add	r0, sp, #4
 206 00f6 FFF7FEFF 		bl	UART_Debug_PutString
 207              	.LVL29:
 208              	.L10:
 106:main.c        ****     }
 107:main.c        ****     
 108:main.c        ****     if (ctrl_reg != CTRL_REG_4_NM) {
 209              		.loc 1 108 0
 210 00fa 9DF80330 		ldrb	r3, [sp, #3]	@ zero_extendqisi2
 211 00fe FBB1     		cbz	r3, .L11
 109:main.c        ****         ctrl_reg = CTRL_REG_4_NM;
 212              		.loc 1 109 0
 213 0100 0022     		movs	r2, #0
 214 0102 8DF80320 		strb	r2, [sp, #3]
 110:main.c        ****         
 111:main.c        ****         error = I2C_Peripheral_WriteRegister(LIS3DH_DEVICE_ADDRESS,CTRL_REG_4,ctrl_reg);
 215              		.loc 1 111 0
 216 0106 2321     		movs	r1, #35
 217 0108 1820     		movs	r0, #24
 218 010a FFF7FEFF 		bl	I2C_Peripheral_WriteRegister
 219              	.LVL30:
 112:main.c        ****         
 113:main.c        ****         if (error == ERROR) {
 220              		.loc 1 113 0
 221 010e 0128     		cmp	r0, #1
 222 0110 0DD1     		bne	.L12
 114:main.c        ****             
 115:main.c        ****             sprintf(message,"Error occured while writing in CTRL_REG_4\r\n");
 223              		.loc 1 115 0
 224 0112 01AC     		add	r4, sp, #4
 225 0114 124D     		ldr	r5, .L14+28
ARM GAS  C:\Users\Vanessa Aloia.Vanessa\AppData\Local\Temp\ccUMi48a.s 			page 7


 226 0116 0FCD     		ldmia	r5!, {r0, r1, r2, r3}
 227              	.LVL31:
 228 0118 0FC4     		stmia	r4!, {r0, r1, r2, r3}
 229 011a 0FCD     		ldmia	r5!, {r0, r1, r2, r3}
 230 011c 0FC4     		stmia	r4!, {r0, r1, r2, r3}
 231 011e 95E80700 		ldmia	r5, {r0, r1, r2}
 232 0122 84E80700 		stmia	r4, {r0, r1, r2}
 116:main.c        ****             UART_Debug_PutString(message);
 233              		.loc 1 116 0
 234 0126 01A8     		add	r0, sp, #4
 235 0128 FFF7FEFF 		bl	UART_Debug_PutString
 236              	.LVL32:
 237 012c 08E0     		b	.L11
 238              	.LVL33:
 239              	.L12:
 117:main.c        ****         }
 118:main.c        ****         else {
 119:main.c        ****             sprintf(message, " CTRL_REG_4 set up at : 0x%02x\r\n", ctrl_reg);
 240              		.loc 1 119 0
 241 012e 9DF80320 		ldrb	r2, [sp, #3]	@ zero_extendqisi2
 242 0132 0C49     		ldr	r1, .L14+32
 243 0134 01A8     		add	r0, sp, #4
 244              	.LVL34:
 245 0136 FFF7FEFF 		bl	sprintf
 246              	.LVL35:
 120:main.c        ****             UART_Debug_PutString(message);
 247              		.loc 1 120 0
 248 013a 01A8     		add	r0, sp, #4
 249 013c FFF7FEFF 		bl	UART_Debug_PutString
 250              	.LVL36:
 251              	.L11:
 252 0140 FEE7     		b	.L11
 253              	.L15:
 254 0142 00BF     		.align	2
 255              	.L14:
 256 0144 00000000 		.word	.LC0
 257 0148 20000000 		.word	.LC1
 258 014c 4C000000 		.word	.LC2
 259 0150 70000000 		.word	.LC3
 260 0154 9C000000 		.word	.LC4
 261 0158 C0000000 		.word	.LC5
 262 015c EC000000 		.word	.LC6
 263 0160 10010000 		.word	.LC7
 264 0164 3C010000 		.word	.LC8
 265              		.cfi_endproc
 266              	.LFE64:
 267              		.size	main, .-main
 268              		.section	.rodata.str1.4,"aMS",%progbits,1
 269              		.align	2
 270              	.LC0:
 271 0000 44657669 		.ascii	"Device 0x%02X is connected\015\012\000"
 271      63652030 
 271      78253032 
 271      58206973 
 271      20636F6E 
 272 001d 000000   		.space	3
 273              	.LC1:
ARM GAS  C:\Users\Vanessa Aloia.Vanessa\AppData\Local\Temp\ccUMi48a.s 			page 8


 274 0020 4572726F 		.ascii	"Error occurred while reading CTRL_REG_1\015\012\000"
 274      72206F63 
 274      63757272 
 274      65642077 
 274      68696C65 
 275 004a 0000     		.space	2
 276              	.LC2:
 277 004c 4354524C 		.ascii	"CTRL_REG_1 default value: 0x%02X \015\012\000"
 277      5F524547 
 277      5F312064 
 277      65666175 
 277      6C742076 
 278              	.LC3:
 279 0070 4572726F 		.ascii	"Error occured while writing in CTRL_REG_1\015\012\000"
 279      72206F63 
 279      63757265 
 279      64207768 
 279      696C6520 
 280              	.LC4:
 281 009c 20435452 		.ascii	" CTRL_REG_1 set up at : 0x%02x\015\012\000"
 281      4C5F5245 
 281      475F3120 
 281      73657420 
 281      75702061 
 282 00bd 000000   		.space	3
 283              	.LC5:
 284 00c0 4572726F 		.ascii	"Error occurred while reading CTRL_REG_4\015\012\000"
 284      72206F63 
 284      63757272 
 284      65642077 
 284      68696C65 
 285 00ea 0000     		.space	2
 286              	.LC6:
 287 00ec 4354524C 		.ascii	"CTRL_REG_4 default value: 0x%02X \015\012\000"
 287      5F524547 
 287      5F342064 
 287      65666175 
 287      6C742076 
 288              	.LC7:
 289 0110 4572726F 		.ascii	"Error occured while writing in CTRL_REG_4\015\012\000"
 289      72206F63 
 289      63757265 
 289      64207768 
 289      696C6520 
 290              	.LC8:
 291 013c 20435452 		.ascii	" CTRL_REG_4 set up at : 0x%02x\015\012\000"
 291      4C5F5245 
 291      475F3420 
 291      73657420 
 291      75702061 
 292              		.text
 293              	.Letext0:
 294              		.file 2 "c:\\program files (x86)\\cypress\\psoc creator\\4.3\\psoc creator\\import\\gnu\\arm\\5.4.
 295              		.file 3 "c:\\program files (x86)\\cypress\\psoc creator\\4.3\\psoc creator\\import\\gnu\\arm\\5.4.
 296              		.file 4 "I2C_Interface.h"
 297              		.file 5 "c:\\program files (x86)\\cypress\\psoc creator\\4.3\\psoc creator\\import\\gnu\\arm\\5.4.
 298              		.file 6 "Generated_Source\\PSoC5/UART_Debug.h"
ARM GAS  C:\Users\Vanessa Aloia.Vanessa\AppData\Local\Temp\ccUMi48a.s 			page 9


 299              		.file 7 "Generated_Source\\PSoC5/CyLib.h"
 300              		.file 8 "ErrorCodes.h"
 301              		.file 9 "Generated_Source\\PSoC5/core_cm3.h"