ARM GAS  C:\Users\Vanessa Aloia.Vanessa\AppData\Local\Temp\cceghCnx.s 			page 1


   1              		.syntax unified
   2              		.cpu cortex-m3
   3              		.fpu softvfp
   4              		.eabi_attribute 20, 1
   5              		.eabi_attribute 21, 1
   6              		.eabi_attribute 23, 3
   7              		.eabi_attribute 24, 1
   8              		.eabi_attribute 25, 1
   9              		.eabi_attribute 26, 1
  10              		.eabi_attribute 30, 1
  11              		.eabi_attribute 34, 1
  12              		.eabi_attribute 18, 4
  13              		.thumb
  14              		.syntax unified
  15              		.file	"interrupt_routines.c"
  16              		.text
  17              	.Ltext0:
  18              		.cfi_sections	.debug_frame
  19              		.global	__aeabi_i2d
  20              		.global	__aeabi_dmul
  21              		.global	__aeabi_d2f
  22              		.global	__aeabi_fmul
  23              		.global	__aeabi_f2iz
  24              		.section	.text.SaveAccelerometerData,"ax",%progbits
  25              		.align	2
  26              		.global	SaveAccelerometerData
  27              		.thumb
  28              		.thumb_func
  29              		.type	SaveAccelerometerData, %function
  30              	SaveAccelerometerData:
  31              	.LFB64:
  32              		.file 1 "interrupt_routines.c"
   1:interrupt_routines.c **** 
   2:interrupt_routines.c **** #include "interrupt_routines.h"
   3:interrupt_routines.c **** 
   4:interrupt_routines.c **** /* 12 bits resolution: output goes from -2048 to 2047 */
   5:interrupt_routines.c **** #define MAX_ACC_OUT 2047
   6:interrupt_routines.c **** 
   7:interrupt_routines.c **** /* sensitivity of the conversione from digit to mg [mg/digit] */
   8:interrupt_routines.c **** #define SENSITIVITY 2
   9:interrupt_routines.c **** 
  10:interrupt_routines.c **** /* 1g= 9.81 m/s^2 */
  11:interrupt_routines.c **** #define g 9.81
  12:interrupt_routines.c **** 
  13:interrupt_routines.c ****     
  14:interrupt_routines.c **** /* array to save accelerometer's registers output */
  15:interrupt_routines.c **** uint8_t accelerometer_data[2*AXES];
  16:interrupt_routines.c **** 
  17:interrupt_routines.c **** /* function to scale the x,y,z output values and save them in the array to send through UART */
  18:interrupt_routines.c **** void SaveAccelerometerData (void);
  19:interrupt_routines.c **** 
  20:interrupt_routines.c **** /* ISR generated by the timer each 10 ms in which the accelerometer's output registers are read */
  21:interrupt_routines.c **** CY_ISR(Custom_ISR) {
  22:interrupt_routines.c **** 
  23:interrupt_routines.c ****     ErrorCode error;
  24:interrupt_routines.c ****     uint8_t status_reg_value;
  25:interrupt_routines.c ****     
ARM GAS  C:\Users\Vanessa Aloia.Vanessa\AppData\Local\Temp\cceghCnx.s 			page 2


  26:interrupt_routines.c ****     /* clear the status register of the timer */
  27:interrupt_routines.c ****     Timer_ReadStatusRegister();
  28:interrupt_routines.c ****     
  29:interrupt_routines.c ****     /*read the accelerometer's status register */
  30:interrupt_routines.c ****     error= I2C_Peripheral_ReadRegister(LIS3DH_DEVICE_ADDRESS, STATUS_REG, &status_reg_value);
  31:interrupt_routines.c ****     
  32:interrupt_routines.c ****     /* if no error occurs while reading */
  33:interrupt_routines.c ****     if (error == NO_ERROR)  {
  34:interrupt_routines.c ****         
  35:interrupt_routines.c ****         /* new data are available on at least one of the x,y,z registers */
  36:interrupt_routines.c ****         if (status_reg_value & STATUS_REG_NEW_DATA) {
  37:interrupt_routines.c ****             
  38:interrupt_routines.c ****             /* multi-read of the x,y,z 2 bytes outputs in the corresponding registers */
  39:interrupt_routines.c ****             error= I2C_Peripheral_ReadRegisterMulti(LIS3DH_DEVICE_ADDRESS, OUT_X_L, 2*AXES, acceler
  40:interrupt_routines.c ****             
  41:interrupt_routines.c ****             if (error == NO_ERROR){
  42:interrupt_routines.c ****                 
  43:interrupt_routines.c ****                 /* scale the values and save it in the array sent through UART */
  44:interrupt_routines.c ****                 SaveAccelerometerData();
  45:interrupt_routines.c ****                 
  46:interrupt_routines.c ****                 /* flag to inform that new data are available */
  47:interrupt_routines.c ****                 new_data=1;
  48:interrupt_routines.c ****             }
  49:interrupt_routines.c ****         }
  50:interrupt_routines.c ****                    
  51:interrupt_routines.c ****         /* no new data are available in any register*/
  52:interrupt_routines.c ****             else 
  53:interrupt_routines.c ****                 new_data=0;
  54:interrupt_routines.c ****         }
  55:interrupt_routines.c **** }
  56:interrupt_routines.c **** 
  57:interrupt_routines.c ****  void SaveAccelerometerData() {
  33              		.loc 1 57 0
  34              		.cfi_startproc
  35              		@ args = 0, pretend = 0, frame = 0
  36              		@ frame_needed = 0, uses_anonymous_args = 0
  37 0000 70B5     		push	{r4, r5, r6, lr}
  38              		.cfi_def_cfa_offset 16
  39              		.cfi_offset 4, -16
  40              		.cfi_offset 5, -12
  41              		.cfi_offset 6, -8
  42              		.cfi_offset 14, -4
  43              	.LVL0:
  58:interrupt_routines.c ****     
  59:interrupt_routines.c ****     uint8_t i;
  60:interrupt_routines.c ****     int16 read_value;
  61:interrupt_routines.c ****     float converted_value;
  62:interrupt_routines.c ****     int32 casted_value;
  63:interrupt_routines.c ****    
  64:interrupt_routines.c ****     /* for x, y, z */
  65:interrupt_routines.c ****     for (i=0; i< AXES; i++) {
  44              		.loc 1 65 0
  45 0002 0024     		movs	r4, #0
  46 0004 39E0     		b	.L2
  47              	.LVL1:
  48              	.L5:
  66:interrupt_routines.c ****     /* output registers are left adjusted: put in a 16 bit variable the two 
ARM GAS  C:\Users\Vanessa Aloia.Vanessa\AppData\Local\Temp\cceghCnx.s 			page 3


  67:interrupt_routines.c ****     registers related with the axis and then shift to the right of 4 bits (12 bits resolution) */
  68:interrupt_routines.c ****         
  69:interrupt_routines.c ****     read_value= (int16) ((accelerometer_data[2*i]| (accelerometer_data[2*i+ 1]<<8))) >>4;
  49              		.loc 1 69 0
  50 0006 2546     		mov	r5, r4
  51 0008 6200     		lsls	r2, r4, #1
  52 000a 2149     		ldr	r1, .L9+16
  53 000c 11F81430 		ldrb	r3, [r1, r4, lsl #1]	@ zero_extendqisi2
  54 0010 0132     		adds	r2, r2, #1
  55 0012 885C     		ldrb	r0, [r1, r2]	@ zero_extendqisi2
  56 0014 43EA0020 		orr	r0, r3, r0, lsl #8
  57 0018 40F30B10 		sbfx	r0, r0, #4, #12
  58              	.LVL2:
  70:interrupt_routines.c ****     
  71:interrupt_routines.c ****     /* since 12 bits resolution,constraints added: output from -2048 to 2047 */
  72:interrupt_routines.c ****     if (read_value > MAX_ACC_OUT)
  59              		.loc 1 72 0
  60 001c B0F5006F 		cmp	r0, #2048
  61 0020 01DB     		blt	.L3
  73:interrupt_routines.c ****     
  74:interrupt_routines.c ****         read_value = MAX_ACC_OUT;
  62              		.loc 1 74 0
  63 0022 40F2FF70 		movw	r0, #2047
  64              	.LVL3:
  65              	.L3:
  75:interrupt_routines.c ****     
  76:interrupt_routines.c ****     if (read_value < -MAX_ACC_OUT -1) 
  66              		.loc 1 76 0
  67 0026 10F5006F 		cmn	r0, #2048
  68 002a 00DA     		bge	.L4
  77:interrupt_routines.c ****     
  78:interrupt_routines.c ****         read_value= -MAX_ACC_OUT-1;
  69              		.loc 1 78 0
  70 002c 1948     		ldr	r0, .L9+20
  71              	.LVL4:
  72              	.L4:
  79:interrupt_routines.c ****     
  80:interrupt_routines.c ****     
  81:interrupt_routines.c ****     /*value converted in m/s^2, conversion in mg/digit using the sensitivity of 2 mg/digit 
  82:interrupt_routines.c ****     provided by the datasheet */
  83:interrupt_routines.c ****     converted_value = read_value* SENSITIVITY * 0.001 *g; 
  73              		.loc 1 83 0 discriminator 2
  74 002e 4000     		lsls	r0, r0, #1
  75              	.LVL5:
  76 0030 FFF7FEFF 		bl	__aeabi_i2d
  77              	.LVL6:
  78 0034 12A3     		adr	r3, .L9
  79 0036 D3E90023 		ldrd	r2, [r3]
  80 003a FFF7FEFF 		bl	__aeabi_dmul
  81              	.LVL7:
  82 003e 12A3     		adr	r3, .L9+8
  83 0040 D3E90023 		ldrd	r2, [r3]
  84 0044 FFF7FEFF 		bl	__aeabi_dmul
  85              	.LVL8:
  86 0048 FFF7FEFF 		bl	__aeabi_d2f
  87              	.LVL9:
  84:interrupt_routines.c ****     
ARM GAS  C:\Users\Vanessa Aloia.Vanessa\AppData\Local\Temp\cceghCnx.s 			page 4


  85:interrupt_routines.c ****     
  86:interrupt_routines.c ****     /* cast the float into a intger of 32 bits taking 4 decimals */
  87:interrupt_routines.c ****     casted_value= (int32) (converted_value * 10000);
  88              		.loc 1 87 0 discriminator 2
  89 004c 1249     		ldr	r1, .L9+24
  90 004e FFF7FEFF 		bl	__aeabi_fmul
  91              	.LVL10:
  92 0052 FFF7FEFF 		bl	__aeabi_f2iz
  93              	.LVL11:
  88:interrupt_routines.c ****     
  89:interrupt_routines.c ****     
  90:interrupt_routines.c ****     /* save the the 4 bytes in the array which will be sent though UART */
  91:interrupt_routines.c ****     packet_to_send[NUM_BYTES*i +1] = (uint8_t)(casted_value & 0xFF);
  94              		.loc 1 91 0 discriminator 2
  95 0056 AB00     		lsls	r3, r5, #2
  96 0058 591C     		adds	r1, r3, #1
  97 005a 104A     		ldr	r2, .L9+28
  98 005c 5054     		strb	r0, [r2, r1]
  92:interrupt_routines.c ****     
  93:interrupt_routines.c ****     packet_to_send [NUM_BYTES*i+2] = (uint8_t)(casted_value>>8 & 0xFF);
  99              		.loc 1 93 0 discriminator 2
 100 005e 991C     		adds	r1, r3, #2
 101 0060 C0F30726 		ubfx	r6, r0, #8, #8
 102 0064 5654     		strb	r6, [r2, r1]
  94:interrupt_routines.c ****     
  95:interrupt_routines.c ****     packet_to_send [NUM_BYTES*i+3] = (uint8_t)(casted_value >> 16 & 0xFF);
 103              		.loc 1 95 0 discriminator 2
 104 0066 0333     		adds	r3, r3, #3
 105 0068 C0F30741 		ubfx	r1, r0, #16, #8
 106 006c D154     		strb	r1, [r2, r3]
  96:interrupt_routines.c ****     
  97:interrupt_routines.c ****     packet_to_send [NUM_BYTES*i+4] = (uint8_t)(casted_value >> 24);
 107              		.loc 1 97 0 discriminator 2
 108 006e 0135     		adds	r5, r5, #1
 109 0070 000E     		lsrs	r0, r0, #24
 110              	.LVL12:
 111 0072 02F82500 		strb	r0, [r2, r5, lsl #2]
  65:interrupt_routines.c ****     /* output registers are left adjusted: put in a 16 bit variable the two 
 112              		.loc 1 65 0 discriminator 2
 113 0076 0134     		adds	r4, r4, #1
 114              	.LVL13:
 115 0078 E4B2     		uxtb	r4, r4
 116              	.LVL14:
 117              	.L2:
  65:interrupt_routines.c ****     /* output registers are left adjusted: put in a 16 bit variable the two 
 118              		.loc 1 65 0 is_stmt 0 discriminator 1
 119 007a 022C     		cmp	r4, #2
 120 007c C3D9     		bls	.L5
  98:interrupt_routines.c ****     }
  99:interrupt_routines.c ****  }
 121              		.loc 1 99 0 is_stmt 1
 122 007e 70BD     		pop	{r4, r5, r6, pc}
 123              	.LVL15:
 124              	.L10:
 125              		.align	3
 126              	.L9:
 127 0080 FCA9F1D2 		.word	-755914244
ARM GAS  C:\Users\Vanessa Aloia.Vanessa\AppData\Local\Temp\cceghCnx.s 			page 5


 128 0084 4D62503F 		.word	1062232653
 129 0088 1F85EB51 		.word	1374389535
 130 008c B89E2340 		.word	1076076216
 131 0090 00000000 		.word	accelerometer_data
 132 0094 00F8FFFF 		.word	-2048
 133 0098 00401C46 		.word	1176256512
 134 009c 00000000 		.word	packet_to_send
 135              		.cfi_endproc
 136              	.LFE64:
 137              		.size	SaveAccelerometerData, .-SaveAccelerometerData
 138              		.section	.text.Custom_ISR,"ax",%progbits
 139              		.align	2
 140              		.global	Custom_ISR
 141              		.thumb
 142              		.thumb_func
 143              		.type	Custom_ISR, %function
 144              	Custom_ISR:
 145              	.LFB63:
  21:interrupt_routines.c **** 
 146              		.loc 1 21 0
 147              		.cfi_startproc
 148              		@ args = 0, pretend = 0, frame = 8
 149              		@ frame_needed = 0, uses_anonymous_args = 0
 150 0000 00B5     		push	{lr}
 151              		.cfi_def_cfa_offset 4
 152              		.cfi_offset 14, -4
 153 0002 83B0     		sub	sp, sp, #12
 154              		.cfi_def_cfa_offset 16
  27:interrupt_routines.c ****     
 155              		.loc 1 27 0
 156 0004 FFF7FEFF 		bl	Timer_ReadStatusRegister
 157              	.LVL16:
  30:interrupt_routines.c ****     
 158              		.loc 1 30 0
 159 0008 0DF10702 		add	r2, sp, #7
 160 000c 2721     		movs	r1, #39
 161 000e 1820     		movs	r0, #24
 162 0010 FFF7FEFF 		bl	I2C_Peripheral_ReadRegister
 163              	.LVL17:
  33:interrupt_routines.c ****         
 164              		.loc 1 33 0
 165 0014 A0B9     		cbnz	r0, .L11
  36:interrupt_routines.c ****             
 166              		.loc 1 36 0
 167 0016 9DF80730 		ldrb	r3, [sp, #7]	@ zero_extendqisi2
 168 001a 13F0080F 		tst	r3, #8
 169 001e 0CD0     		beq	.L13
  39:interrupt_routines.c ****             
 170              		.loc 1 39 0
 171 0020 094B     		ldr	r3, .L15
 172 0022 0622     		movs	r2, #6
 173 0024 2821     		movs	r1, #40
 174 0026 1820     		movs	r0, #24
 175              	.LVL18:
 176 0028 FFF7FEFF 		bl	I2C_Peripheral_ReadRegisterMulti
 177              	.LVL19:
  41:interrupt_routines.c ****                 
ARM GAS  C:\Users\Vanessa Aloia.Vanessa\AppData\Local\Temp\cceghCnx.s 			page 6


 178              		.loc 1 41 0
 179 002c 40B9     		cbnz	r0, .L11
  44:interrupt_routines.c ****                 
 180              		.loc 1 44 0
 181 002e FFF7FEFF 		bl	SaveAccelerometerData
 182              	.LVL20:
  47:interrupt_routines.c ****             }
 183              		.loc 1 47 0
 184 0032 0122     		movs	r2, #1
 185 0034 054B     		ldr	r3, .L15+4
 186 0036 1A70     		strb	r2, [r3]
 187 0038 02E0     		b	.L11
 188              	.LVL21:
 189              	.L13:
  53:interrupt_routines.c ****         }
 190              		.loc 1 53 0
 191 003a 0022     		movs	r2, #0
 192 003c 034B     		ldr	r3, .L15+4
 193 003e 1A70     		strb	r2, [r3]
 194              	.LVL22:
 195              	.L11:
  55:interrupt_routines.c **** 
 196              		.loc 1 55 0
 197 0040 03B0     		add	sp, sp, #12
 198              		.cfi_def_cfa_offset 4
 199              		@ sp needed
 200 0042 5DF804FB 		ldr	pc, [sp], #4
 201              	.L16:
 202 0046 00BF     		.align	2
 203              	.L15:
 204 0048 00000000 		.word	accelerometer_data
 205 004c 00000000 		.word	new_data
 206              		.cfi_endproc
 207              	.LFE63:
 208              		.size	Custom_ISR, .-Custom_ISR
 209              		.comm	accelerometer_data,6,4
 210              		.comm	packet_to_send,14,4
 211              		.comm	new_data,1,1
 212              		.text
 213              	.Letext0:
 214              		.file 2 "c:\\program files (x86)\\cypress\\psoc creator\\4.3\\psoc creator\\import\\gnu\\arm\\5.4.
 215              		.file 3 "c:\\program files (x86)\\cypress\\psoc creator\\4.3\\psoc creator\\import\\gnu\\arm\\5.4.
 216              		.file 4 "Generated_Source\\PSoC5/cytypes.h"
 217              		.file 5 "ErrorCodes.h"
 218              		.file 6 "Generated_Source\\PSoC5/core_cm3.h"
 219              		.file 7 "interrupt_routines.h"
 220              		.file 8 "Generated_Source\\PSoC5/Timer.h"
 221              		.file 9 "I2C_Interface.h"