ARM GAS  C:\Users\Vanessa Aloia.Vanessa\AppData\Local\Temp\ccR82jD4.s 			page 1


   1              		.syntax unified
   2              		.cpu cortex-m3
   3              		.fpu softvfp
   4              		.eabi_attribute 20, 1
   5              		.eabi_attribute 21, 1
   6              		.eabi_attribute 23, 3
   7              		.eabi_attribute 24, 1
   8              		.eabi_attribute 25, 1
   9              		.eabi_attribute 26, 1
  10              		.eabi_attribute 30, 1
  11              		.eabi_attribute 34, 1
  12              		.eabi_attribute 18, 4
  13              		.thumb
  14              		.syntax unified
  15              		.file	"main.c"
  16              		.text
  17              	.Ltext0:
  18              		.cfi_sections	.debug_frame
  19              		.section	.text.main,"ax",%progbits
  20              		.align	2
  21              		.global	main
  22              		.thumb
  23              		.thumb_func
  24              		.type	main, %function
  25              	main:
  26              	.LFB64:
  27              		.file 1 "main.c"
   1:main.c        **** /**
   2:main.c        **** * Project 2.3
   3:main.c        **** * In this project the registers of the acceleremeter are set to provide a 3 axis signal
   4:main.c        **** * in hish resolution mode with a sampling frequency of 100 Hz and a full scale range from -4g to +4
   5:main.c        **** * Every 10 ms the accelerometer's status register is read to verify if new data are available.
   6:main.c        **** * If so, the accelerometer's output registers are read and data are sent through UART communication
   7:main.c        **** * with a baud rate of 19200 bps.
   8:main.c        **** *
   9:main.c        **** * Author: Vanessa Aloia
  10:main.c        **** * Date: 27/04/2020
  11:main.c        **** */
  12:main.c        **** 
  13:main.c        **** 
  14:main.c        **** 
  15:main.c        **** 
  16:main.c        **** // Include required header files
  17:main.c        **** #include "I2C_Interface.h"
  18:main.c        **** #include "project.h"
  19:main.c        **** #include "stdio.h"
  20:main.c        **** #include "RegistersDefinition.h"
  21:main.c        **** #include "interrupt_routines.h"
  22:main.c        **** 
  23:main.c        **** 
  24:main.c        **** 
  25:main.c        **** 
  26:main.c        **** 
  27:main.c        **** int main(void)
  28:main.c        **** {
  28              		.loc 1 28 0
  29              		.cfi_startproc
ARM GAS  C:\Users\Vanessa Aloia.Vanessa\AppData\Local\Temp\ccR82jD4.s 			page 2


  30              		@ args = 0, pretend = 0, frame = 56
  31              		@ frame_needed = 0, uses_anonymous_args = 0
  32 0000 30B5     		push	{r4, r5, lr}
  33              		.cfi_def_cfa_offset 12
  34              		.cfi_offset 4, -12
  35              		.cfi_offset 5, -8
  36              		.cfi_offset 14, -4
  37 0002 8FB0     		sub	sp, sp, #60
  38              		.cfi_def_cfa_offset 72
  29:main.c        ****     /* Enable global interrupts. */
  30:main.c        ****     CyGlobalIntEnable; 
  39              		.loc 1 30 0
  40              		.syntax unified
  41              	@ 30 "main.c" 1
  42 0004 62B6     		CPSIE   i
  43              	@ 0 "" 2
  31:main.c        ****     
  32:main.c        ****     /* flag's default value is set at 0 */
  33:main.c        ****     new_data=0;
  44              		.loc 1 33 0
  45              		.thumb
  46              		.syntax unified
  47 0006 0024     		movs	r4, #0
  48 0008 5A4B     		ldr	r3, .L16
  49 000a 1C70     		strb	r4, [r3]
  34:main.c        **** 
  35:main.c        ****     /* Place your initialization/startup of the I2C and UART */
  36:main.c        ****     I2C_Peripheral_Start();
  50              		.loc 1 36 0
  51 000c FFF7FEFF 		bl	I2C_Peripheral_Start
  52              	.LVL0:
  37:main.c        ****     UART_Debug_Start();
  53              		.loc 1 37 0
  54 0010 FFF7FEFF 		bl	UART_Debug_Start
  55              	.LVL1:
  38:main.c        ****     
  39:main.c        ****     
  40:main.c        ****     /*"The boot procedure is complete about 5 milliseconds after device power-up." */
  41:main.c        ****     CyDelay(5); 
  56              		.loc 1 41 0
  57 0014 0520     		movs	r0, #5
  58 0016 FFF7FEFF 		bl	CyDelay
  59              	.LVL2:
  60              	.LBB2:
  42:main.c        ****     
  43:main.c        ****     /* String to print out messages on the UART */
  44:main.c        ****     char message[50];
  45:main.c        **** 
  46:main.c        ****     /* Check which devices are present on the I2C bus */
  47:main.c        ****     for (int i = 0 ; i < 128; i++)
  61              		.loc 1 47 0
  62 001a 0CE0     		b	.L2
  63              	.LVL3:
  64              	.L4:
  48:main.c        ****     {
  49:main.c        ****         if (I2C_Peripheral_IsDeviceConnected(i))
  65              		.loc 1 49 0
ARM GAS  C:\Users\Vanessa Aloia.Vanessa\AppData\Local\Temp\ccR82jD4.s 			page 3


  66 001c E0B2     		uxtb	r0, r4
  67 001e FFF7FEFF 		bl	I2C_Peripheral_IsDeviceConnected
  68              	.LVL4:
  69 0022 38B1     		cbz	r0, .L3
  50:main.c        ****         {
  51:main.c        ****             // print out the address is hex format
  52:main.c        ****             sprintf(message, "Device 0x%02X is connected\r\n", i);
  70              		.loc 1 52 0
  71 0024 2246     		mov	r2, r4
  72 0026 5449     		ldr	r1, .L16+4
  73 0028 01A8     		add	r0, sp, #4
  74 002a FFF7FEFF 		bl	sprintf
  75              	.LVL5:
  53:main.c        ****             UART_Debug_PutString(message); 
  76              		.loc 1 53 0
  77 002e 01A8     		add	r0, sp, #4
  78 0030 FFF7FEFF 		bl	UART_Debug_PutString
  79              	.LVL6:
  80              	.L3:
  47:main.c        ****     {
  81              		.loc 1 47 0 discriminator 2
  82 0034 0134     		adds	r4, r4, #1
  83              	.LVL7:
  84              	.L2:
  47:main.c        ****     {
  85              		.loc 1 47 0 is_stmt 0 discriminator 1
  86 0036 7F2C     		cmp	r4, #127
  87 0038 F0DD     		ble	.L4
  88              	.LBE2:
  54:main.c        ****         }
  55:main.c        ****         
  56:main.c        ****     }
  57:main.c        ****     
  58:main.c        ****     
  59:main.c        ****     /* SET THE REGISTERS TO READ THE ACCELEROMETER'S OUTPUT AT 100 HZ WITH 10-bit RESOLUTION
  60:main.c        ****      (NORMALE MODE)
  61:main.c        ****     */
  62:main.c        ****     
  63:main.c        ****     uint8_t ctrl_reg;
  64:main.c        ****     ErrorCode error;
  65:main.c        ****    
  66:main.c        ****     error = I2C_Peripheral_ReadRegister(LIS3DH_DEVICE_ADDRESS,CTRL_REG_1,&ctrl_reg);
  89              		.loc 1 66 0 is_stmt 1
  90 003a 0DF10302 		add	r2, sp, #3
  91 003e 2021     		movs	r1, #32
  92 0040 1820     		movs	r0, #24
  93 0042 FFF7FEFF 		bl	I2C_Peripheral_ReadRegister
  94              	.LVL8:
  67:main.c        ****     
  68:main.c        ****     if (error == ERROR) {
  95              		.loc 1 68 0
  96 0046 0128     		cmp	r0, #1
  97 0048 0DD1     		bne	.L5
  69:main.c        ****         
  70:main.c        ****         sprintf(message, "Error occurred while reading CTRL_REG_1\r\n");
  98              		.loc 1 70 0
  99 004a 01AC     		add	r4, sp, #4
ARM GAS  C:\Users\Vanessa Aloia.Vanessa\AppData\Local\Temp\ccR82jD4.s 			page 4


 100              	.LVL9:
 101 004c 4B4D     		ldr	r5, .L16+8
 102 004e 0FCD     		ldmia	r5!, {r0, r1, r2, r3}
 103              	.LVL10:
 104 0050 0FC4     		stmia	r4!, {r0, r1, r2, r3}
 105 0052 0FCD     		ldmia	r5!, {r0, r1, r2, r3}
 106 0054 0FC4     		stmia	r4!, {r0, r1, r2, r3}
 107 0056 95E80700 		ldmia	r5, {r0, r1, r2}
 108 005a 03C4     		stmia	r4!, {r0, r1}
 109 005c 2280     		strh	r2, [r4]	@ movhi
  71:main.c        ****         
  72:main.c        ****         UART_Debug_PutString(message);
 110              		.loc 1 72 0
 111 005e 01A8     		add	r0, sp, #4
 112 0060 FFF7FEFF 		bl	UART_Debug_PutString
 113              	.LVL11:
 114 0064 08E0     		b	.L6
 115              	.LVL12:
 116              	.L5:
  73:main.c        ****     }
  74:main.c        ****     
  75:main.c        ****     else {
  76:main.c        ****          sprintf(message, "CTRL_REG_1 default value: 0x%02X \r\n", ctrl_reg);
 117              		.loc 1 76 0
 118 0066 9DF80320 		ldrb	r2, [sp, #3]	@ zero_extendqisi2
 119 006a 4549     		ldr	r1, .L16+12
 120 006c 01A8     		add	r0, sp, #4
 121              	.LVL13:
 122 006e FFF7FEFF 		bl	sprintf
 123              	.LVL14:
  77:main.c        ****         
  78:main.c        ****          UART_Debug_PutString(message); 
 124              		.loc 1 78 0
 125 0072 01A8     		add	r0, sp, #4
 126 0074 FFF7FEFF 		bl	UART_Debug_PutString
 127              	.LVL15:
 128              	.L6:
  79:main.c        ****     }
  80:main.c        ****     
  81:main.c        ****     /* Set the control register 1 in order to operate in high resolution mode at 100 Hz */
  82:main.c        ****     if (ctrl_reg != CTRL_REG_1_HR) {
 129              		.loc 1 82 0
 130 0078 9DF80330 		ldrb	r3, [sp, #3]	@ zero_extendqisi2
 131 007c 572B     		cmp	r3, #87
 132 007e 1FD0     		beq	.L7
  83:main.c        ****         ctrl_reg = CTRL_REG_1_HR;
 133              		.loc 1 83 0
 134 0080 5722     		movs	r2, #87
 135 0082 8DF80320 		strb	r2, [sp, #3]
  84:main.c        ****         
  85:main.c        ****         error = I2C_Peripheral_WriteRegister(LIS3DH_DEVICE_ADDRESS,CTRL_REG_1,ctrl_reg);
 136              		.loc 1 85 0
 137 0086 2021     		movs	r1, #32
 138 0088 1820     		movs	r0, #24
 139 008a FFF7FEFF 		bl	I2C_Peripheral_WriteRegister
 140              	.LVL16:
  86:main.c        ****         
ARM GAS  C:\Users\Vanessa Aloia.Vanessa\AppData\Local\Temp\ccR82jD4.s 			page 5


  87:main.c        ****         if (error == ERROR) {
 141              		.loc 1 87 0
 142 008e 0128     		cmp	r0, #1
 143 0090 0DD1     		bne	.L8
  88:main.c        ****             
  89:main.c        ****             sprintf(message,"Error occured while writing in CTRL_REG_1\r\n");
 144              		.loc 1 89 0
 145 0092 01AC     		add	r4, sp, #4
 146 0094 3B4D     		ldr	r5, .L16+16
 147 0096 0FCD     		ldmia	r5!, {r0, r1, r2, r3}
 148              	.LVL17:
 149 0098 0FC4     		stmia	r4!, {r0, r1, r2, r3}
 150 009a 0FCD     		ldmia	r5!, {r0, r1, r2, r3}
 151 009c 0FC4     		stmia	r4!, {r0, r1, r2, r3}
 152 009e 95E80700 		ldmia	r5, {r0, r1, r2}
 153 00a2 84E80700 		stmia	r4, {r0, r1, r2}
  90:main.c        ****             UART_Debug_PutString(message);
 154              		.loc 1 90 0
 155 00a6 01A8     		add	r0, sp, #4
 156 00a8 FFF7FEFF 		bl	UART_Debug_PutString
 157              	.LVL18:
 158 00ac 08E0     		b	.L7
 159              	.LVL19:
 160              	.L8:
  91:main.c        ****         }
  92:main.c        ****         else {
  93:main.c        ****             sprintf(message, " CTRL_REG_1 set up at : 0x%02x\r\n", ctrl_reg);
 161              		.loc 1 93 0
 162 00ae 9DF80320 		ldrb	r2, [sp, #3]	@ zero_extendqisi2
 163 00b2 3549     		ldr	r1, .L16+20
 164 00b4 01A8     		add	r0, sp, #4
 165              	.LVL20:
 166 00b6 FFF7FEFF 		bl	sprintf
 167              	.LVL21:
  94:main.c        ****             UART_Debug_PutString(message);
 168              		.loc 1 94 0
 169 00ba 01A8     		add	r0, sp, #4
 170 00bc FFF7FEFF 		bl	UART_Debug_PutString
 171              	.LVL22:
 172              	.L7:
  95:main.c        ****         }
  96:main.c        ****     }
  97:main.c        ****     
  98:main.c        ****     error = I2C_Peripheral_ReadRegister(LIS3DH_DEVICE_ADDRESS,CTRL_REG_4,&ctrl_reg);
 173              		.loc 1 98 0
 174 00c0 0DF10302 		add	r2, sp, #3
 175 00c4 2321     		movs	r1, #35
 176 00c6 1820     		movs	r0, #24
 177 00c8 FFF7FEFF 		bl	I2C_Peripheral_ReadRegister
 178              	.LVL23:
  99:main.c        ****     
 100:main.c        ****     if (error == ERROR) {
 179              		.loc 1 100 0
 180 00cc 0128     		cmp	r0, #1
 181 00ce 0DD1     		bne	.L9
 101:main.c        ****         sprintf(message, "Error occurred while reading CTRL_REG_4\r\n");
 182              		.loc 1 101 0
ARM GAS  C:\Users\Vanessa Aloia.Vanessa\AppData\Local\Temp\ccR82jD4.s 			page 6


 183 00d0 01AC     		add	r4, sp, #4
 184 00d2 2E4D     		ldr	r5, .L16+24
 185 00d4 0FCD     		ldmia	r5!, {r0, r1, r2, r3}
 186              	.LVL24:
 187 00d6 0FC4     		stmia	r4!, {r0, r1, r2, r3}
 188 00d8 0FCD     		ldmia	r5!, {r0, r1, r2, r3}
 189 00da 0FC4     		stmia	r4!, {r0, r1, r2, r3}
 190 00dc 95E80700 		ldmia	r5, {r0, r1, r2}
 191 00e0 03C4     		stmia	r4!, {r0, r1}
 192 00e2 2280     		strh	r2, [r4]	@ movhi
 102:main.c        ****         UART_Debug_PutString(message);
 193              		.loc 1 102 0
 194 00e4 01A8     		add	r0, sp, #4
 195 00e6 FFF7FEFF 		bl	UART_Debug_PutString
 196              	.LVL25:
 197 00ea 08E0     		b	.L10
 198              	.LVL26:
 199              	.L9:
 103:main.c        ****     }
 104:main.c        ****     
 105:main.c        ****     else {
 106:main.c        ****          sprintf(message, "CTRL_REG_4 default value: 0x%02X \r\n", ctrl_reg);
 200              		.loc 1 106 0
 201 00ec 9DF80320 		ldrb	r2, [sp, #3]	@ zero_extendqisi2
 202 00f0 2749     		ldr	r1, .L16+28
 203 00f2 01A8     		add	r0, sp, #4
 204              	.LVL27:
 205 00f4 FFF7FEFF 		bl	sprintf
 206              	.LVL28:
 107:main.c        ****          UART_Debug_PutString(message); 
 207              		.loc 1 107 0
 208 00f8 01A8     		add	r0, sp, #4
 209 00fa FFF7FEFF 		bl	UART_Debug_PutString
 210              	.LVL29:
 211              	.L10:
 108:main.c        ****     }
 109:main.c        ****     
 110:main.c        ****     /* set the control register 4 to operate in high resolution mode and set up FSR= 8g */
 111:main.c        ****     
 112:main.c        ****     if (ctrl_reg != CTRL_REG_4_HR) {
 212              		.loc 1 112 0
 213 00fe 9DF80330 		ldrb	r3, [sp, #3]	@ zero_extendqisi2
 214 0102 182B     		cmp	r3, #24
 215 0104 1FD0     		beq	.L11
 113:main.c        ****         ctrl_reg = CTRL_REG_4_HR;
 216              		.loc 1 113 0
 217 0106 1820     		movs	r0, #24
 218 0108 8DF80300 		strb	r0, [sp, #3]
 114:main.c        ****         
 115:main.c        ****         error = I2C_Peripheral_WriteRegister(LIS3DH_DEVICE_ADDRESS,CTRL_REG_4,ctrl_reg);
 219              		.loc 1 115 0
 220 010c 0246     		mov	r2, r0
 221 010e 2321     		movs	r1, #35
 222 0110 FFF7FEFF 		bl	I2C_Peripheral_WriteRegister
 223              	.LVL30:
 116:main.c        ****         
 117:main.c        ****         if (error == ERROR) {
ARM GAS  C:\Users\Vanessa Aloia.Vanessa\AppData\Local\Temp\ccR82jD4.s 			page 7


 224              		.loc 1 117 0
 225 0114 0128     		cmp	r0, #1
 226 0116 0DD1     		bne	.L12
 118:main.c        ****             
 119:main.c        ****             sprintf(message,"Error occured while writing in CTRL_REG_4\r\n");
 227              		.loc 1 119 0
 228 0118 01AC     		add	r4, sp, #4
 229 011a 1E4D     		ldr	r5, .L16+32
 230 011c 0FCD     		ldmia	r5!, {r0, r1, r2, r3}
 231              	.LVL31:
 232 011e 0FC4     		stmia	r4!, {r0, r1, r2, r3}
 233 0120 0FCD     		ldmia	r5!, {r0, r1, r2, r3}
 234 0122 0FC4     		stmia	r4!, {r0, r1, r2, r3}
 235 0124 95E80700 		ldmia	r5, {r0, r1, r2}
 236 0128 84E80700 		stmia	r4, {r0, r1, r2}
 120:main.c        ****             
 121:main.c        ****             UART_Debug_PutString(message);
 237              		.loc 1 121 0
 238 012c 01A8     		add	r0, sp, #4
 239 012e FFF7FEFF 		bl	UART_Debug_PutString
 240              	.LVL32:
 241 0132 08E0     		b	.L11
 242              	.LVL33:
 243              	.L12:
 122:main.c        ****         }
 123:main.c        ****         else {
 124:main.c        ****             sprintf(message, "CTRL_REG_4 set up at : 0x%02x\r\n", ctrl_reg);
 244              		.loc 1 124 0
 245 0134 9DF80320 		ldrb	r2, [sp, #3]	@ zero_extendqisi2
 246 0138 1749     		ldr	r1, .L16+36
 247 013a 01A8     		add	r0, sp, #4
 248              	.LVL34:
 249 013c FFF7FEFF 		bl	sprintf
 250              	.LVL35:
 125:main.c        ****             
 126:main.c        ****             UART_Debug_PutString(message);
 251              		.loc 1 126 0
 252 0140 01A8     		add	r0, sp, #4
 253 0142 FFF7FEFF 		bl	UART_Debug_PutString
 254              	.LVL36:
 255              	.L11:
 127:main.c        ****         }
 128:main.c        ****     }    
 129:main.c        ****     
 130:main.c        ****     /* after setting up the register, initialize timer and interrupt */
 131:main.c        ****     Timer_Start();
 256              		.loc 1 131 0
 257 0146 FFF7FEFF 		bl	Timer_Start
 258              	.LVL37:
 132:main.c        ****     
 133:main.c        ****     ISR_ReadData_StartEx(Custom_ISR);
 259              		.loc 1 133 0
 260 014a 1448     		ldr	r0, .L16+40
 261 014c FFF7FEFF 		bl	ISR_ReadData_StartEx
 262              	.LVL38:
 134:main.c        ****     
 135:main.c        ****     
ARM GAS  C:\Users\Vanessa Aloia.Vanessa\AppData\Local\Temp\ccR82jD4.s 			page 8


 136:main.c        ****     /* set header and tail for UART communication */
 137:main.c        ****     packet_to_send[0]= 0xA0;
 263              		.loc 1 137 0
 264 0150 134B     		ldr	r3, .L16+44
 265 0152 A022     		movs	r2, #160
 266 0154 1A70     		strb	r2, [r3]
 138:main.c        ****     packet_to_send[(AXES*NUM_BYTES+2)-1]= 0xC0;
 267              		.loc 1 138 0
 268 0156 C022     		movs	r2, #192
 269 0158 5A73     		strb	r2, [r3, #13]
 270              	.L13:
 139:main.c        ****     
 140:main.c        ****     
 141:main.c        ****     for(;;) {
 142:main.c        ****         
 143:main.c        ****         /* if new data are available */
 144:main.c        ****         if (new_data) {
 271              		.loc 1 144 0
 272 015a 064B     		ldr	r3, .L16
 273 015c 1B78     		ldrb	r3, [r3]	@ zero_extendqisi2
 274 015e 13F0FF0F 		tst	r3, #255
 275 0162 FAD0     		beq	.L13
 145:main.c        ****             
 146:main.c        ****             /* sennd the data through UART */
 147:main.c        ****             UART_Debug_PutArray(packet_to_send, AXES*NUM_BYTES +2);
 276              		.loc 1 147 0
 277 0164 0E21     		movs	r1, #14
 278 0166 0E48     		ldr	r0, .L16+44
 279 0168 FFF7FEFF 		bl	UART_Debug_PutArray
 280              	.LVL39:
 148:main.c        ****             
 149:main.c        ****             /* re-set the flag at 0 */
 150:main.c        ****             new_data=0;
 281              		.loc 1 150 0
 282 016c 0022     		movs	r2, #0
 283 016e 014B     		ldr	r3, .L16
 284 0170 1A70     		strb	r2, [r3]
 285 0172 F2E7     		b	.L13
 286              	.L17:
 287              		.align	2
 288              	.L16:
 289 0174 00000000 		.word	new_data
 290 0178 00000000 		.word	.LC0
 291 017c 20000000 		.word	.LC1
 292 0180 4C000000 		.word	.LC2
 293 0184 70000000 		.word	.LC3
 294 0188 9C000000 		.word	.LC4
 295 018c C0000000 		.word	.LC5
 296 0190 EC000000 		.word	.LC6
 297 0194 10010000 		.word	.LC7
 298 0198 3C010000 		.word	.LC8
 299 019c 00000000 		.word	Custom_ISR
 300 01a0 00000000 		.word	packet_to_send
 301              		.cfi_endproc
 302              	.LFE64:
 303              		.size	main, .-main
 304              		.comm	packet_to_send,14,4
ARM GAS  C:\Users\Vanessa Aloia.Vanessa\AppData\Local\Temp\ccR82jD4.s 			page 9


 305              		.comm	new_data,1,1
 306              		.section	.rodata.str1.4,"aMS",%progbits,1
 307              		.align	2
 308              	.LC0:
 309 0000 44657669 		.ascii	"Device 0x%02X is connected\015\012\000"
 309      63652030 
 309      78253032 
 309      58206973 
 309      20636F6E 
 310 001d 000000   		.space	3
 311              	.LC1:
 312 0020 4572726F 		.ascii	"Error occurred while reading CTRL_REG_1\015\012\000"
 312      72206F63 
 312      63757272 
 312      65642077 
 312      68696C65 
 313 004a 0000     		.space	2
 314              	.LC2:
 315 004c 4354524C 		.ascii	"CTRL_REG_1 default value: 0x%02X \015\012\000"
 315      5F524547 
 315      5F312064 
 315      65666175 
 315      6C742076 
 316              	.LC3:
 317 0070 4572726F 		.ascii	"Error occured while writing in CTRL_REG_1\015\012\000"
 317      72206F63 
 317      63757265 
 317      64207768 
 317      696C6520 
 318              	.LC4:
 319 009c 20435452 		.ascii	" CTRL_REG_1 set up at : 0x%02x\015\012\000"
 319      4C5F5245 
 319      475F3120 
 319      73657420 
 319      75702061 
 320 00bd 000000   		.space	3
 321              	.LC5:
 322 00c0 4572726F 		.ascii	"Error occurred while reading CTRL_REG_4\015\012\000"
 322      72206F63 
 322      63757272 
 322      65642077 
 322      68696C65 
 323 00ea 0000     		.space	2
 324              	.LC6:
 325 00ec 4354524C 		.ascii	"CTRL_REG_4 default value: 0x%02X \015\012\000"
 325      5F524547 
 325      5F342064 
 325      65666175 
 325      6C742076 
 326              	.LC7:
 327 0110 4572726F 		.ascii	"Error occured while writing in CTRL_REG_4\015\012\000"
 327      72206F63 
 327      63757265 
 327      64207768 
 327      696C6520 
 328              	.LC8:
 329 013c 4354524C 		.ascii	"CTRL_REG_4 set up at : 0x%02x\015\012\000"
ARM GAS  C:\Users\Vanessa Aloia.Vanessa\AppData\Local\Temp\ccR82jD4.s 			page 10


 329      5F524547 
 329      5F342073 
 329      65742075 
 329      70206174 
 330              		.text
 331              	.Letext0:
 332              		.file 2 "c:\\program files (x86)\\cypress\\psoc creator\\4.3\\psoc creator\\import\\gnu\\arm\\5.4.
 333              		.file 3 "c:\\program files (x86)\\cypress\\psoc creator\\4.3\\psoc creator\\import\\gnu\\arm\\5.4.
 334              		.file 4 "ErrorCodes.h"
 335              		.file 5 "Generated_Source\\PSoC5/core_cm3.h"
 336              		.file 6 "interrupt_routines.h"
 337              		.file 7 "I2C_Interface.h"
 338              		.file 8 "c:\\program files (x86)\\cypress\\psoc creator\\4.3\\psoc creator\\import\\gnu\\arm\\5.4.
 339              		.file 9 "Generated_Source\\PSoC5/UART_Debug.h"
 340              		.file 10 "Generated_Source\\PSoC5/CyLib.h"
 341              		.file 11 "Generated_Source\\PSoC5/Timer.h"
 342              		.file 12 "Generated_Source\\PSoC5/ISR_ReadData.h"